target datalayout = "e-m:e-p270:32:32-p271:32:32-p272:64:64-i64:64-i128:128-f80:128-n8:16:32:64-S128"
target triple = "x86_64-pc-linux-gnu"

%class.MetadataOnStackClosure = type { %class.MetadataClosure }
%class.MetadataClosure = type { ptr }

@_ZTV22MetadataOnStackClosure = linkonce_odr hidden unnamed_addr constant { [3 x ptr] } { [3 x ptr] [ptr null, ptr null, ptr @_ZN22MetadataOnStackClosure11do_metadataEP8Metadata] }, comdat, align 8
@_ZTV15MetadataClosure = linkonce_odr hidden unnamed_addr constant { [3 x ptr] } { [3 x ptr] [ptr null, ptr null, ptr @__cxa_pure_virtual] }, comdat, align 8

; Function Attrs: mustprogress nounwind uwtable
define linkonce_odr hidden void @_ZN15MetadataClosureC2Ev(ptr noundef nonnull align 8 dereferenceable(8) %0) unnamed_addr #1 comdat align 2 {
  %2 = alloca ptr, align 8
  store ptr %0, ptr %2, align 8
  %3 = load ptr, ptr %2, align 8
  store ptr getelementptr inbounds inrange(-16, 8) ({ [3 x ptr] }, ptr @_ZTV15MetadataClosure, i32 0, i32 0, i32 2), ptr %3, align 8
  ret void
}

; Function Attrs: mustprogress nounwind uwtable
define linkonce_odr hidden void @_ZN22MetadataOnStackClosureC2Ev(ptr noundef nonnull align 8 dereferenceable(8) %0) unnamed_addr #1 comdat align 2 {
  %2 = alloca ptr, align 8
  store ptr %0, ptr %2, align 8
  %3 = load ptr, ptr %2, align 8
  call void @_ZN15MetadataClosureC2Ev(ptr noundef nonnull align 8 dereferenceable(8) %3) #3
  store ptr getelementptr inbounds inrange(-16, 8) ({ [3 x ptr] }, ptr @_ZTV22MetadataOnStackClosure, i32 0, i32 0, i32 2), ptr %3, align 8
  ret void
}

; Function Attrs: mustprogress nounwind uwtable
define hidden void @_ZN19MetadataOnStackMarkC2Ebb(ptr noundef nonnull align 1 dereferenceable(1) %0, i1 noundef zeroext %1, i1 noundef zeroext %2) unnamed_addr #1 align 2 {
  %4 = alloca ptr, align 8
  %5 = alloca i8, align 1
  %6 = alloca i8, align 1
  %7 = alloca %class.MetadataOnStackClosure, align 8
  store ptr %0, ptr %4, align 8
  %8 = zext i1 %1 to i8
  store i8 %8, ptr %5, align 1
  %9 = zext i1 %2 to i8
  store i8 %9, ptr %6, align 1
  call void @_ZN7Threads19metadata_handles_doEPFvP8MetadataE(ptr noundef @_ZN8Metadata13mark_on_stackEPS_)
  %10 = load i8, ptr %5, align 1
  %11 = trunc i8 %10 to i1
  br i1 %11, label %12, label %18

12:                                               ; preds = %3
  call void @_ZN22MetadataOnStackClosureC2Ev(ptr noundef nonnull align 8 dereferenceable(8) %7) #3
  call void @_ZN7Threads11metadata_doEP15MetadataClosure(ptr noundef %7)
  %13 = load i8, ptr %6, align 1
  %14 = trunc i8 %13 to i1
  br i1 %14, label %15, label %16

15:                                               ; preds = %12
  call void @_ZN9CodeCache11metadata_doEP15MetadataClosure(ptr noundef %7)
  br label %17

16:                                               ; preds = %12
  call void @_ZN9CodeCache15old_nmethods_doEP15MetadataClosure(ptr noundef %7)
  br label %17

17:                                               ; preds = %16, %15
  call void @_ZN13CompileBroker13mark_on_stackEv()
  call void @_ZN13ThreadService11metadata_doEPFvP8MetadataE(ptr noundef @_ZN8Metadata13mark_on_stackEPS_)
  call void @_ZN5JVMCI11metadata_doEPFvP8MetadataE(ptr noundef @_ZN8Metadata13mark_on_stackEPS_)
  br label %18

18:                                               ; preds = %17, %3
  ret void
}