; Function Attrs: mustprogress nounwind uwtable
define hidden void @_ZN19MetadataOnStackMarkC2Ebb(ptr nocapture nonnull readnone align 1 %0, i1 noundef zeroext %1, i1 noundef zeroext %2) unnamed_addr #0 align 2 {
  %4 = alloca %class.MetadataOnStackClosure, align 8
  tail call void @_ZN7Threads19metadata_handles_doEPFvP8MetadataE(ptr noundef nonnull @_ZN8Metadata13mark_on_stackEPS_) #4
  br i1 %1, label %5, label %9

5:                                                ; preds = %3
  store ptr getelementptr inbounds inrange(-16, 8) (i8, ptr @_ZTV22MetadataOnStackClosure, i64 16), ptr %4, align 8
  call void @_ZN7Threads11metadata_doEP15MetadataClosure(ptr noundef nonnull %4) #4
  br i1 %2, label %6, label %7

6:                                                ; preds = %5
  call void @_ZN9CodeCache11metadata_doEP15MetadataClosure(ptr noundef nonnull %4) #4
  br label %8

7:                                                ; preds = %5
  call void @_ZN9CodeCache15old_nmethods_doEP15MetadataClosure(ptr noundef nonnull %4) #4
  br label %8

8:                                                ; preds = %7, %6
  call void @_ZN13CompileBroker13mark_on_stackEv() #4
  call void @_ZN13ThreadService11metadata_doEPFvP8MetadataE(ptr noundef nonnull @_ZN8Metadata13mark_on_stackEPS_) #4
  call void @_ZN5JVMCI11metadata_doEPFvP8MetadataE(ptr noundef nonnull @_ZN8Metadata13mark_on_stackEPS_) #4
  br label %9

9:                                                ; preds = %8, %3
  ret void
}